target datalayout = "e-m:e-p270:32:32-p271:32:32-p272:64:64-i64:64-i128:128-f80:128-n8:16:32:64-S128"
target triple = "x86_64-pc-linux-gnu"

%struct._DtBauhausWidget = type { %struct._GtkDrawingArea, i32, ptr, ptr, i32, [256 x i8], i32, ptr, i32, ptr, ptr, i32, ptr, i32, i32, i32, %struct._GtkBorder, %struct._GtkBorder, i32, %union.dt_bauhaus_data_t }
%struct._GtkDrawingArea = type { %struct._GtkWidget, ptr }
%struct._GtkWidget = type { %struct._GObject, ptr }
%struct._GObject = type { %struct._GTypeInstance, i32, ptr }
%struct._GTypeInstance = type { ptr }
%struct._GtkBorder = type { i16, i16, i16, i16 }
%union.dt_bauhaus_data_t = type { %struct.dt_bauhaus_slider_data_t }
%struct.dt_bauhaus_slider_data_t = type { float, float, float, float, float, float, float, float, float, float, i32, ptr, i32, ptr, i8, ptr, float, float, i8, i32, ptr }

; Function Attrs: nounwind uwtable
define internal void @_margins_retrieve(ptr noundef %0) #0 {
  %2 = alloca ptr, align 8
  %3 = alloca ptr, align 8
  %4 = alloca i32, align 4
  store ptr %0, ptr %2, align 8, !tbaa !17
  call void @llvm.lifetime.start.p0(i64 8, ptr %3) #13
  %5 = load ptr, ptr %2, align 8, !tbaa !17
  %6 = call i64 @gtk_widget_get_type() #14
  %7 = call ptr @g_type_check_instance_cast(ptr noundef %5, i64 noundef %6)
  %8 = call ptr @gtk_widget_get_style_context(ptr noundef %7)
  store ptr %8, ptr %3, align 8, !tbaa !74
  call void @llvm.lifetime.start.p0(i64 4, ptr %4) #13
  %9 = load ptr, ptr %2, align 8, !tbaa !17
  %10 = call i64 @gtk_widget_get_type() #14
  %11 = call ptr @g_type_check_instance_cast(ptr noundef %9, i64 noundef %10)
  %12 = call i32 @gtk_widget_get_state_flags(ptr noundef %11)
  store i32 %12, ptr %4, align 4, !tbaa !13
  %13 = load ptr, ptr %3, align 8, !tbaa !74
  %14 = load i32, ptr %4, align 4, !tbaa !13
  %15 = load ptr, ptr %2, align 8, !tbaa !17
  %16 = getelementptr inbounds nuw %struct._DtBauhausWidget, ptr %15, i32 0, i32 16
  call void @gtk_style_context_get_margin(ptr noundef %13, i32 noundef %14, ptr noundef %16)
  %17 = load ptr, ptr %3, align 8, !tbaa !74
  %18 = load i32, ptr %4, align 4, !tbaa !13
  %19 = load ptr, ptr %2, align 8, !tbaa !17
  %20 = getelementptr inbounds nuw %struct._DtBauhausWidget, ptr %19, i32 0, i32 17
  call void @gtk_style_context_get_padding(ptr noundef %17, i32 noundef %18, ptr noundef %20)
  call void @llvm.lifetime.end.p0(i64 4, ptr %4) #13
  call void @llvm.lifetime.end.p0(i64 8, ptr %3) #13
  ret void
}

; Function Attrs: nounwind uwtable
define internal void @_widget_get_preferred_width(ptr noundef %0, ptr noundef %1, ptr noundef %2) #0 {
  %4 = alloca ptr, align 8
  %5 = alloca ptr, align 8
  %6 = alloca ptr, align 8
  %7 = alloca ptr, align 8
  store ptr %0, ptr %4, align 8, !tbaa !15
  store ptr %1, ptr %5, align 8, !tbaa !291
  store ptr %2, ptr %6, align 8, !tbaa !291
  call void @llvm.lifetime.start.p0(i64 8, ptr %7) #13
  %8 = load ptr, ptr %4, align 8, !tbaa !15
  store ptr %8, ptr %7, align 8, !tbaa !17
  %9 = load ptr, ptr %7, align 8, !tbaa !17
  call void @_margins_retrieve(ptr noundef %9)
  %10 = load ptr, ptr %4, align 8, !tbaa !15
  %11 = call i32 @_natural_width(ptr noundef %10, i32 noundef 0)
  %12 = load ptr, ptr %7, align 8, !tbaa !17
  %13 = getelementptr inbounds nuw %struct._DtBauhausWidget, ptr %12, i32 0, i32 16
  %14 = getelementptr inbounds nuw %struct._GtkBorder, ptr %13, i32 0, i32 0
  %15 = load i16, ptr %14, align 4, !tbaa !315
  %16 = sext i16 %15 to i32
  %17 = add nsw i32 %11, %16
  %18 = load ptr, ptr %7, align 8, !tbaa !17
  %19 = getelementptr inbounds nuw %struct._DtBauhausWidget, ptr %18, i32 0, i32 16
  %20 = getelementptr inbounds nuw %struct._GtkBorder, ptr %19, i32 0, i32 1
  %21 = load i16, ptr %20, align 2, !tbaa !316
  %22 = sext i16 %21 to i32
  %23 = add nsw i32 %17, %22
  %24 = load ptr, ptr %7, align 8, !tbaa !17
  %25 = getelementptr inbounds nuw %struct._DtBauhausWidget, ptr %24, i32 0, i32 17
  %26 = getelementptr inbounds nuw %struct._GtkBorder, ptr %25, i32 0, i32 0
  %27 = load i16, ptr %26, align 4, !tbaa !319
  %28 = sext i16 %27 to i32
  %29 = add nsw i32 %23, %28
  %30 = load ptr, ptr %7, align 8, !tbaa !17
  %31 = getelementptr inbounds nuw %struct._DtBauhausWidget, ptr %30, i32 0, i32 17
  %32 = getelementptr inbounds nuw %struct._GtkBorder, ptr %31, i32 0, i32 1
  %33 = load i16, ptr %32, align 2, !tbaa !320
  %34 = sext i16 %33 to i32
  %35 = add nsw i32 %29, %34
  %36 = load ptr, ptr %6, align 8, !tbaa !291
  store i32 %35, ptr %36, align 4, !tbaa !13
  call void @llvm.lifetime.end.p0(i64 8, ptr %7) #13
  ret void
}