; Function Attrs: nounwind uwtable
define internal void @_widget_get_preferred_width(ptr noundef %0, ptr readnone captures(none) %1, ptr noundef writeonly captures(none) initializes((0, 4)) %2) #0 {
  %4 = tail call i64 @gtk_widget_get_type() #20
  %5 = tail call ptr @g_type_check_instance_cast(ptr noundef %0, i64 noundef %4) #19
  %6 = tail call ptr @gtk_widget_get_style_context(ptr noundef %5) #19
  %7 = tail call ptr @g_type_check_instance_cast(ptr noundef %0, i64 noundef %4) #19
  %8 = tail call i32 @gtk_widget_get_state_flags(ptr noundef %7) #19
  %9 = getelementptr inbounds nuw i8, ptr %0, i64 388
  tail call void @gtk_style_context_get_margin(ptr noundef %6, i32 noundef %8, ptr noundef nonnull %9) #19
  %10 = getelementptr inbounds nuw i8, ptr %0, i64 396
  tail call void @gtk_style_context_get_padding(ptr noundef %6, i32 noundef %8, ptr noundef nonnull %10) #19
  %11 = tail call fastcc i32 @_natural_width(ptr noundef %0, i32 noundef 0)
  %12 = load i16, ptr %9, align 4, !tbaa !259
  %13 = sext i16 %12 to i32
  %14 = add nsw i32 %11, %13
  %15 = getelementptr inbounds nuw i8, ptr %0, i64 390
  %16 = load i16, ptr %15, align 2, !tbaa !260
  %17 = sext i16 %16 to i32
  %18 = add nsw i32 %14, %17
  %19 = load i16, ptr %10, align 4, !tbaa !263
  %20 = sext i16 %19 to i32
  %21 = add nsw i32 %18, %20
  %22 = getelementptr inbounds nuw i8, ptr %0, i64 398
  %23 = load i16, ptr %22, align 2, !tbaa !264
  %24 = sext i16 %23 to i32
  %25 = add nsw i32 %21, %24
  store i32 %25, ptr %2, align 4, !tbaa !79
  ret void
}